; Function Attrs: mustprogress uwtable
define hidden noundef zeroext i1 @_ZN4cvc58internal6theory4sets14TheorySetsRels7hasTermENS0_12NodeTemplateILb1EEE(ptr nocapture noundef nonnull readonly align 8 dereferenceable(616) %this, ptr nocapture noundef readonly %a) local_unnamed_addr #3 align 2 personality ptr @__gxx_personality_v0 {
entry:
  %agg.tmp = alloca %"class.cvc5::internal::NodeTemplate.531", align 8
  %d_state = getelementptr inbounds i8, ptr %this, i64 32
  %0 = load ptr, ptr %d_state, align 8
  %1 = load ptr, ptr %a, align 8
  store ptr %1, ptr %agg.tmp, align 8
  %vtable = load ptr, ptr %0, align 8
  %vfn = getelementptr inbounds i8, ptr %vtable, i64 16
  %2 = load ptr, ptr %vfn, align 8
  %call = call noundef zeroext i1 %2(ptr noundef nonnull align 8 dereferenceable(80) %0, ptr noundef nonnull %agg.tmp)
  ret i1 %call
}